; ModuleID = '30/1942.c'
source_filename = "30/1942.c"
target datalayout = "e-m:e-p270:32:32-p271:32:32-p272:64:64-i64:64-f80:128-n8:16:32:64-S128"
target triple = "x86_64-pc-linux-gnu"

@.str = private unnamed_addr constant [3 x i8] c"%d\00", align 1

; Function Attrs: noinline nounwind uwtable
define dso_local i32 @main() #0 {
  %1 = alloca i32, align 4
  %2 = alloca i32, align 4
  %3 = alloca i32, align 4
  %4 = alloca i32, align 4
  store i32 0, i32* %1, align 4
  store i32 0, i32* %4, align 4
  %5 = call i32 (i8*, ...) @__isoc99_scanf(i8* getelementptr inbounds ([3 x i8], [3 x i8]* @.str, i64 0, i64 0), i32* %2)
  store i32 1, i32* %3, align 4
  br label %6

6:                                                ; preds = %37, %0
  %7 = load i32, i32* %3, align 4
  %8 = load i32, i32* %2, align 4
  %9 = icmp sle i32 %7, %8
  br i1 %9, label %10, label %40

10:                                               ; preds = %6
  %11 = load i32, i32* %3, align 4
  %12 = srem i32 %11, 7
  %13 = icmp eq i32 %12, 0
  br i1 %13, label %14, label %16

14:                                               ; preds = %10
  %15 = load i32, i32* %4, align 4
  store i32 %15, i32* %4, align 4
  br label %36

16:                                               ; preds = %10
  %17 = load i32, i32* %3, align 4
  %18 = srem i32 %17, 10
  %19 = icmp eq i32 %18, 7
  br i1 %19, label %20, label %22

20:                                               ; preds = %16
  %21 = load i32, i32* %4, align 4
  store i32 %21, i32* %4, align 4
  br label %35

22:                                               ; preds = %16
  %23 = load i32, i32* %3, align 4
  %24 = sdiv i32 %23, 10
  %25 = icmp eq i32 %24, 7
  br i1 %25, label %26, label %28

26:                                               ; preds = %22
  %27 = load i32, i32* %4, align 4
  store i32 %27, i32* %4, align 4
  br label %34

28:                                               ; preds = %22
  %29 = load i32, i32* %3, align 4
  %30 = load i32, i32* %3, align 4
  %31 = mul nsw i32 %29, %30
  %32 = load i32, i32* %4, align 4
  %33 = add nsw i32 %32, %31
  store i32 %33, i32* %4, align 4
  br label %34

34:                                               ; preds = %28, %26
  br label %35

35:                                               ; preds = %34, %20
  br label %36

36:                                               ; preds = %35, %14
  br label %37

37:                                               ; preds = %36
  %38 = load i32, i32* %3, align 4
  %39 = add nsw i32 %38, 1
  store i32 %39, i32* %3, align 4
  br label %6

40:                                               ; preds = %6
  %41 = load i32, i32* %4, align 4
  %42 = call i32 (i8*, ...) @printf(i8* getelementptr inbounds ([3 x i8], [3 x i8]* @.str, i64 0, i64 0), i32 %41)
  ret i32 0
}

declare dso_local i32 @__isoc99_scanf(i8*, ...) #1

declare dso_local i32 @printf(i8*, ...) #1


!llvm.module.flags = !{!0}
!llvm.ident = !{!1}

!0 = !{i32 1, !"wchar_size", i32 4}
!1 = !{!"clang version 10.0.0-4ubuntu1 "}
